target datalayout = "e-m:e-p270:32:32-p271:32:32-p272:64:64-i64:64-i128:128-f80:128-n8:16:32:64-S128"
target triple = "x86_64-pc-linux-gnu"

%struct.mi_segment_s = type { %struct.mi_memid_s, i8, i8, i64, ptr, ptr, ptr, i8, i8, i64, i64, i64, i64, i64, i64, ptr, ptr, i64, i64, i32, [1 x %struct.mi_page_s] }
%struct.mi_memid_s = type { %union.anon, i8, i8, i8, i32 }
%union.anon = type { %struct.mi_memid_os_info }
%struct.mi_memid_os_info = type { ptr, i64 }
%struct.mi_page_s = type { i8, i8, i16, i16, %union.mi_page_flags_s, i8, ptr, ptr, i16, i8, i8, i64, ptr, i64, i64, ptr, ptr }
%union.mi_page_flags_s = type { i8 }
%struct.mi_arena_s = type { i32, %struct.mi_memid_s, ptr, i64, i64, i64, %struct.mi_memid_s, i32, i8, i8, %union.pthread_mutex_t, i64, i64, ptr, ptr, ptr, ptr, [1 x i64] }
%union.pthread_mutex_t = type { %struct.__pthread_mutex_s }
%struct.__pthread_mutex_s = type { i32, i32, i32, i32, i32, i16, i16, %struct.__pthread_internal_list }
%struct.__pthread_internal_list = type { ptr, ptr }
%struct.mi_subproc_s = type { i64, i64, %union.pthread_mutex_t, %union.pthread_mutex_t, ptr, ptr, %struct.mi_memid_s }
%struct.mi_memid_arena_info = type { i64, i32, i8 }

@mi_arenas = internal global [132 x ptr] zeroinitializer, align 64

; Function Attrs: nounwind uwtable
define hidden i64 @mi_arena_id_index(i32 noundef %0) #0 {
  %2 = alloca i32, align 4
  store i32 %0, ptr %2, align 4, !tbaa !52
  %3 = load i32, ptr %2, align 4, !tbaa !52
  %4 = icmp sle i32 %3, 0
  br i1 %4, label %5, label %6

5:                                                ; preds = %1
  br label %9

6:                                                ; preds = %1
  %7 = load i32, ptr %2, align 4, !tbaa !52
  %8 = sub nsw i32 %7, 1
  br label %9

9:                                                ; preds = %6, %5
  %10 = phi i32 [ 132, %5 ], [ %8, %6 ]
  %11 = sext i32 %10 to i64
  ret i64 %11
}

; Function Attrs: nounwind uwtable
define hidden ptr @mi_arena_from_index(i64 noundef %0) #0 {
  %2 = alloca i64, align 8
  %3 = alloca ptr, align 8
  store i64 %0, ptr %2, align 8, !tbaa !15
  %4 = load i64, ptr %2, align 8, !tbaa !15
  %5 = getelementptr inbounds nuw [132 x ptr], ptr @mi_arenas, i64 0, i64 %4
  %6 = load atomic i64, ptr %5 acquire, align 8
  store i64 %6, ptr %3, align 8
  %7 = load ptr, ptr %3, align 8, !tbaa !16
  ret ptr %7
}

; Function Attrs: nounwind uwtable
define hidden zeroext i1 @mi_arena_memid_indices(ptr noundef byval(%struct.mi_memid_s) align 8 %0, ptr noundef %1, ptr noundef %2) #0 {
  %4 = alloca ptr, align 8
  %5 = alloca ptr, align 8
  store ptr %1, ptr %4, align 8, !tbaa !31
  store ptr %2, ptr %5, align 8, !tbaa !31
  %6 = getelementptr inbounds nuw %struct.mi_memid_s, ptr %0, i32 0, i32 0
  %7 = getelementptr inbounds nuw %struct.mi_memid_arena_info, ptr %6, i32 0, i32 1
  %8 = load i32, ptr %7, align 8, !tbaa !33
  %9 = call i64 @mi_arena_id_index(i32 noundef %8) #12
  %10 = load ptr, ptr %4, align 8, !tbaa !31
  store i64 %9, ptr %10, align 8, !tbaa !15
  %11 = getelementptr inbounds nuw %struct.mi_memid_s, ptr %0, i32 0, i32 0
  %12 = getelementptr inbounds nuw %struct.mi_memid_arena_info, ptr %11, i32 0, i32 0
  %13 = load i64, ptr %12, align 8, !tbaa !33
  %14 = load ptr, ptr %5, align 8, !tbaa !31
  store i64 %13, ptr %14, align 8, !tbaa !15
  %15 = getelementptr inbounds nuw %struct.mi_memid_s, ptr %0, i32 0, i32 0
  %16 = getelementptr inbounds nuw %struct.mi_memid_arena_info, ptr %15, i32 0, i32 2
  %17 = load i8, ptr %16, align 4, !tbaa !33, !range !22, !noundef !23
  %18 = trunc i8 %17 to i1
  ret i1 %18
}

; Function Attrs: nounwind uwtable
define hidden void @_mi_arena_segment_mark_abandoned(ptr noundef %0) #0 {
  %2 = alloca ptr, align 8
  %3 = alloca i64, align 8
  %4 = alloca i64, align 8
  %5 = alloca i64, align 8
  %6 = alloca ptr, align 8
  %7 = alloca ptr, align 8
  %8 = alloca i8, align 1
  %9 = alloca i64, align 8
  %10 = alloca i64, align 8
  store ptr %0, ptr %2, align 8, !tbaa !3
  %11 = load ptr, ptr %2, align 8, !tbaa !3
  %12 = getelementptr inbounds nuw %struct.mi_segment_s, ptr %11, i32 0, i32 17
  store i64 0, ptr %3, align 8, !tbaa !15
  %13 = load i64, ptr %3, align 8
  store atomic i64 %13, ptr %12 release, align 8
  %14 = load ptr, ptr %2, align 8, !tbaa !3
  %15 = getelementptr inbounds nuw %struct.mi_segment_s, ptr %14, i32 0, i32 0
  %16 = getelementptr inbounds nuw %struct.mi_memid_s, ptr %15, i32 0, i32 4
  %17 = load i32, ptr %16, align 4, !tbaa !8
  %18 = icmp ne i32 %17, 6
  %19 = xor i1 %18, true
  %20 = xor i1 %19, true
  %21 = zext i1 %20 to i32
  %22 = sext i32 %21 to i64
  %23 = call i64 @llvm.expect.i64(i64 %22, i64 0)
  %24 = icmp ne i64 %23, 0
  br i1 %24, label %25, label %27

25:                                               ; preds = %1
  %26 = load ptr, ptr %2, align 8, !tbaa !3
  call void @mi_arena_segment_os_mark_abandoned(ptr noundef %26) #12
  br label %53

27:                                               ; preds = %1
  call void @llvm.lifetime.start.p0(i64 8, ptr %4) #13
  call void @llvm.lifetime.start.p0(i64 8, ptr %5) #13
  %28 = load ptr, ptr %2, align 8, !tbaa !3
  %29 = getelementptr inbounds nuw %struct.mi_segment_s, ptr %28, i32 0, i32 0
  %30 = call zeroext i1 @mi_arena_memid_indices(ptr noundef byval(%struct.mi_memid_s) align 8 %29, ptr noundef %4, ptr noundef %5) #12
  call void @llvm.lifetime.start.p0(i64 8, ptr %6) #13
  %31 = load i64, ptr %4, align 8, !tbaa !15
  %32 = call ptr @mi_arena_from_index(i64 noundef %31) #12
  store ptr %32, ptr %6, align 8, !tbaa !16
  call void @llvm.lifetime.start.p0(i64 8, ptr %7) #13
  %33 = load ptr, ptr %2, align 8, !tbaa !3
  %34 = getelementptr inbounds nuw %struct.mi_segment_s, ptr %33, i32 0, i32 4
  %35 = load ptr, ptr %34, align 8, !tbaa !24
  store ptr %35, ptr %7, align 8, !tbaa !25
  call void @llvm.lifetime.start.p0(i64 1, ptr %8) #13
  %36 = load ptr, ptr %6, align 8, !tbaa !16
  %37 = getelementptr inbounds nuw %struct.mi_arena_s, ptr %36, i32 0, i32 16
  %38 = load ptr, ptr %37, align 8, !tbaa !18
  %39 = load ptr, ptr %6, align 8, !tbaa !16
  %40 = getelementptr inbounds nuw %struct.mi_arena_s, ptr %39, i32 0, i32 4
  %41 = load i64, ptr %40, align 8, !tbaa !20
  %42 = load i64, ptr %5, align 8, !tbaa !15
  %43 = call zeroext i1 @_mi_bitmap_claim(ptr noundef %38, i64 noundef %41, i64 noundef 1, i64 noundef %42, ptr noundef null) #12
  %44 = zext i1 %43 to i8
  store i8 %44, ptr %8, align 1, !tbaa !21
  %45 = load i8, ptr %8, align 1, !tbaa !21, !range !22, !noundef !23
  %46 = trunc i8 %45 to i1
  br i1 %46, label %47, label %52

47:                                               ; preds = %27
  %48 = load ptr, ptr %7, align 8, !tbaa !25
  %49 = getelementptr inbounds nuw %struct.mi_subproc_s, ptr %48, i32 0, i32 0
  store i64 1, ptr %9, align 8, !tbaa !15
  %50 = load i64, ptr %9, align 8
  %51 = atomicrmw add ptr %49, i64 %50 monotonic, align 8
  store i64 %51, ptr %10, align 8
  br label %52

52:                                               ; preds = %47, %27
  call void @llvm.lifetime.end.p0(i64 1, ptr %8) #13
  call void @llvm.lifetime.end.p0(i64 8, ptr %7) #13
  call void @llvm.lifetime.end.p0(i64 8, ptr %6) #13
  call void @llvm.lifetime.end.p0(i64 8, ptr %5) #13
  call void @llvm.lifetime.end.p0(i64 8, ptr %4) #13
  br label %53

53:                                               ; preds = %52, %25
  ret void
}