; Function Attrs: nounwind uwtable
define hidden void @_mi_arena_segment_mark_abandoned(ptr noundef %0) local_unnamed_addr #0 {
  %2 = getelementptr inbounds nuw i8, ptr %0, i64 136
  store atomic i64 0, ptr %2 release, align 8
  %3 = getelementptr inbounds nuw i8, ptr %0, i64 20
  %4 = load i32, ptr %3, align 4, !tbaa !3
  %.not = icmp eq i32 %4, 6
  br i1 %.not, label %6, label %5, !prof !14

5:                                                ; preds = %1
  tail call fastcc void @mi_arena_segment_os_mark_abandoned(ptr noundef nonnull %0) #19
  br label %23

6:                                                ; preds = %1
  %.sroa.0.0.copyload = load i64, ptr %0, align 1
  %.sroa.4.0..sroa_idx = getelementptr inbounds nuw i8, ptr %0, i64 8
  %.sroa.4.0.copyload = load i32, ptr %.sroa.4.0..sroa_idx, align 1
  %7 = icmp slt i32 %.sroa.4.0.copyload, 1
  %8 = add nsw i32 %.sroa.4.0.copyload, -1
  %9 = select i1 %7, i32 132, i32 %8
  %10 = zext nneg i32 %9 to i64
  %11 = getelementptr inbounds nuw [132 x ptr], ptr @mi_arenas, i64 0, i64 %10
  %12 = load atomic i64, ptr %11 acquire, align 8
  %13 = inttoptr i64 %12 to ptr
  %14 = getelementptr inbounds nuw i8, ptr %0, i64 40
  %15 = load ptr, ptr %14, align 8, !tbaa !18
  %16 = getelementptr inbounds nuw i8, ptr %13, i64 176
  %17 = load ptr, ptr %16, align 8, !tbaa !15
  %18 = getelementptr inbounds nuw i8, ptr %13, i64 48
  %19 = load i64, ptr %18, align 8, !tbaa !17
  %20 = tail call zeroext i1 @_mi_bitmap_claim(ptr noundef %17, i64 noundef %19, i64 noundef 1, i64 noundef %.sroa.0.0.copyload, ptr noundef null) #20
  br i1 %20, label %21, label %23

21:                                               ; preds = %6
  %22 = atomicrmw add ptr %15, i64 1 monotonic, align 8
  br label %23

23:                                               ; preds = %6, %21, %5
  ret void
}